target datalayout = "e-m:e-p270:32:32-p271:32:32-p272:64:64-i64:64-i128:128-f80:128-n8:16:32:64-S128"
target triple = "x86_64-pc-linux-gnu"

%struct._dcerpc_info = type { ptr, i32, i64, i8, i8, i8, i32, i32, i32, i32, i32, i32, i32, i32, ptr, ptr, ptr, ptr, %struct.anon }
%struct.anon = type { i8, ptr, ptr, ptr, i8 }
%struct._dcerpc_call_value = type { %struct._e_guid_t, i16, %struct._e_guid_t, i16, i32, %struct.nstime_t, i32, i32, ptr, ptr, ptr, i32 }
%struct._e_guid_t = type { i32, i16, i16, [8 x i8] }
%struct.nstime_t = type { i64, i32 }

@hf_nt_cs_len = hidden global i32 0, align 4
@hf_nt_cs_size = hidden global i32 0, align 4
@ett_nt_counted_byte_array = internal global i32 0, align 4
@.str.6 = private unnamed_addr constant [11 x i8] c"Byte Array\00", align 1

; Function Attrs: null_pointer_is_valid sspstrong uwtable
define hidden i32 @dissect_ndr_counted_byte_array_cb(ptr noundef %0, i32 noundef %1, ptr noundef %2, ptr noundef %3, ptr noundef %4, ptr noundef %5, i32 noundef %6, ptr noundef %7, ptr noundef %8) #0 {
  %10 = alloca i32, align 4
  %11 = alloca ptr, align 8
  %12 = alloca i32, align 4
  %13 = alloca ptr, align 8
  %14 = alloca ptr, align 8
  %15 = alloca ptr, align 8
  %16 = alloca ptr, align 8
  %17 = alloca i32, align 4
  %18 = alloca ptr, align 8
  %19 = alloca ptr, align 8
  %20 = alloca ptr, align 8
  %21 = alloca ptr, align 8
  %22 = alloca i16, align 2
  %23 = alloca i16, align 2
  %24 = alloca i32, align 4
  store ptr %0, ptr %11, align 8
  store i32 %1, ptr %12, align 4
  store ptr %2, ptr %13, align 8
  store ptr %3, ptr %14, align 8
  store ptr %4, ptr %15, align 8
  store ptr %5, ptr %16, align 8
  store i32 %6, ptr %17, align 4
  store ptr %7, ptr %18, align 8
  store ptr %8, ptr %19, align 8
  call void @llvm.lifetime.start.p0(i64 8, ptr %20) #13
  call void @llvm.lifetime.start.p0(i64 8, ptr %21) #13
  call void @llvm.lifetime.start.p0(i64 2, ptr %22) #13
  call void @llvm.lifetime.start.p0(i64 2, ptr %23) #13
  %25 = load ptr, ptr %15, align 8
  %26 = getelementptr inbounds nuw %struct._dcerpc_info, ptr %25, i32 0, i32 14
  %27 = load ptr, ptr %26, align 8
  %28 = getelementptr inbounds nuw %struct._dcerpc_call_value, ptr %27, i32 0, i32 11
  %29 = load i32, ptr %28, align 8
  %30 = and i32 %29, 1
  %31 = icmp ne i32 %30, 0
  br i1 %31, label %32, label %47

32:                                               ; preds = %9
  %33 = load ptr, ptr %15, align 8
  %34 = getelementptr inbounds nuw %struct._dcerpc_info, ptr %33, i32 0, i32 4
  %35 = load i8, ptr %34, align 1, !range !6, !noundef !7
  %36 = trunc i8 %35 to i1
  br i1 %36, label %46, label %37

37:                                               ; preds = %32
  %38 = load i32, ptr %12, align 4
  %39 = and i32 %38, 7
  %40 = icmp ne i32 %39, 0
  br i1 %40, label %41, label %45

41:                                               ; preds = %37
  %42 = load i32, ptr %12, align 4
  %43 = and i32 %42, -8
  %44 = add i32 %43, 8
  store i32 %44, ptr %12, align 4
  br label %45

45:                                               ; preds = %41, %37
  br label %46

46:                                               ; preds = %45, %32
  br label %62

47:                                               ; preds = %9
  %48 = load ptr, ptr %15, align 8
  %49 = getelementptr inbounds nuw %struct._dcerpc_info, ptr %48, i32 0, i32 4
  %50 = load i8, ptr %49, align 1, !range !6, !noundef !7
  %51 = trunc i8 %50 to i1
  br i1 %51, label %61, label %52

52:                                               ; preds = %47
  %53 = load i32, ptr %12, align 4
  %54 = and i32 %53, 3
  %55 = icmp ne i32 %54, 0
  br i1 %55, label %56, label %60

56:                                               ; preds = %52
  %57 = load i32, ptr %12, align 4
  %58 = and i32 %57, -4
  %59 = add i32 %58, 4
  store i32 %59, ptr %12, align 4
  br label %60

60:                                               ; preds = %56, %52
  br label %61

61:                                               ; preds = %60, %47
  br label %62

62:                                               ; preds = %61, %46
  %63 = load ptr, ptr %15, align 8
  %64 = getelementptr inbounds nuw %struct._dcerpc_info, ptr %63, i32 0, i32 4
  %65 = load i8, ptr %64, align 1, !range !6, !noundef !7
  %66 = trunc i8 %65 to i1
  br i1 %66, label %67, label %69

67:                                               ; preds = %62
  %68 = load i32, ptr %12, align 4
  store i32 %68, ptr %10, align 4
  store i32 1, ptr %24, align 4
  br label %151

69:                                               ; preds = %62
  %70 = load ptr, ptr %14, align 8
  %71 = load ptr, ptr %11, align 8
  %72 = load i32, ptr %12, align 4
  %73 = load i32, ptr @ett_nt_counted_byte_array, align 4
  %74 = load i32, ptr %17, align 4
  %75 = call ptr @proto_registrar_get_name(i32 noundef %74)
  %76 = call ptr @proto_tree_add_subtree(ptr noundef %70, ptr noundef %71, i32 noundef %72, i32 noundef 0, i32 noundef %73, ptr noundef %20, ptr noundef %75)
  store ptr %76, ptr %21, align 8
  %77 = load ptr, ptr %11, align 8
  %78 = load i32, ptr %12, align 4
  %79 = load ptr, ptr %13, align 8
  %80 = load ptr, ptr %21, align 8
  %81 = load ptr, ptr %15, align 8
  %82 = load ptr, ptr %16, align 8
  %83 = load i32, ptr @hf_nt_cs_len, align 4
  %84 = call i32 @dissect_ndr_uint16(ptr noundef %77, i32 noundef %78, ptr noundef %79, ptr noundef %80, ptr noundef %81, ptr noundef %82, i32 noundef %83, ptr noundef %22)
  store i32 %84, ptr %12, align 4
  %85 = load ptr, ptr %11, align 8
  %86 = load i32, ptr %12, align 4
  %87 = load ptr, ptr %13, align 8
  %88 = load ptr, ptr %21, align 8
  %89 = load ptr, ptr %15, align 8
  %90 = load ptr, ptr %16, align 8
  %91 = load i32, ptr @hf_nt_cs_size, align 4
  %92 = call i32 @dissect_ndr_uint16(ptr noundef %85, i32 noundef %86, ptr noundef %87, ptr noundef %88, ptr noundef %89, ptr noundef %90, i32 noundef %91, ptr noundef %23)
  store i32 %92, ptr %12, align 4
  %93 = load ptr, ptr %11, align 8
  %94 = load i32, ptr %12, align 4
  %95 = load ptr, ptr %13, align 8
  %96 = load ptr, ptr %21, align 8
  %97 = load ptr, ptr %15, align 8
  %98 = load ptr, ptr %16, align 8
  %99 = load i32, ptr %17, align 4
  %100 = load ptr, ptr %18, align 8
  %101 = load ptr, ptr %19, align 8
  %102 = call i32 @dissect_ndr_pointer_cb(ptr noundef %93, i32 noundef %94, ptr noundef %95, ptr noundef %96, ptr noundef %97, ptr noundef %98, ptr noundef @dissect_ndr_char_cvstring, i32 noundef 2, ptr noundef @.str.6, i32 noundef %99, ptr noundef %100, ptr noundef %101)
  store i32 %102, ptr %12, align 4
  %103 = load ptr, ptr %15, align 8
  %104 = getelementptr inbounds nuw %struct._dcerpc_info, ptr %103, i32 0, i32 14
  %105 = load ptr, ptr %104, align 8
  %106 = getelementptr inbounds nuw %struct._dcerpc_call_value, ptr %105, i32 0, i32 11
  %107 = load i32, ptr %106, align 8
  %108 = and i32 %107, 1
  %109 = icmp ne i32 %108, 0
  br i1 %109, label %110, label %149

110:                                              ; preds = %69
  %111 = load ptr, ptr %15, align 8
  %112 = getelementptr inbounds nuw %struct._dcerpc_info, ptr %111, i32 0, i32 14
  %113 = load ptr, ptr %112, align 8
  %114 = getelementptr inbounds nuw %struct._dcerpc_call_value, ptr %113, i32 0, i32 11
  %115 = load i32, ptr %114, align 8
  %116 = and i32 %115, 1
  %117 = icmp ne i32 %116, 0
  br i1 %117, label %118, label %133

118:                                              ; preds = %110
  %119 = load ptr, ptr %15, align 8
  %120 = getelementptr inbounds nuw %struct._dcerpc_info, ptr %119, i32 0, i32 4
  %121 = load i8, ptr %120, align 1, !range !6, !noundef !7
  %122 = trunc i8 %121 to i1
  br i1 %122, label %132, label %123

123:                                              ; preds = %118
  %124 = load i32, ptr %12, align 4
  %125 = and i32 %124, 7
  %126 = icmp ne i32 %125, 0
  br i1 %126, label %127, label %131

127:                                              ; preds = %123
  %128 = load i32, ptr %12, align 4
  %129 = and i32 %128, -8
  %130 = add i32 %129, 8
  store i32 %130, ptr %12, align 4
  br label %131

131:                                              ; preds = %127, %123
  br label %132

132:                                              ; preds = %131, %118
  br label %148

133:                                              ; preds = %110
  %134 = load ptr, ptr %15, align 8
  %135 = getelementptr inbounds nuw %struct._dcerpc_info, ptr %134, i32 0, i32 4
  %136 = load i8, ptr %135, align 1, !range !6, !noundef !7
  %137 = trunc i8 %136 to i1
  br i1 %137, label %147, label %138

138:                                              ; preds = %133
  %139 = load i32, ptr %12, align 4
  %140 = and i32 %139, 3
  %141 = icmp ne i32 %140, 0
  br i1 %141, label %142, label %146

142:                                              ; preds = %138
  %143 = load i32, ptr %12, align 4
  %144 = and i32 %143, -4
  %145 = add i32 %144, 4
  store i32 %145, ptr %12, align 4
  br label %146

146:                                              ; preds = %142, %138
  br label %147

147:                                              ; preds = %146, %133
  br label %148

148:                                              ; preds = %147, %132
  br label %149

149:                                              ; preds = %148, %69
  %150 = load i32, ptr %12, align 4
  store i32 %150, ptr %10, align 4
  store i32 1, ptr %24, align 4
  br label %151

151:                                              ; preds = %149, %67
  call void @llvm.lifetime.end.p0(i64 2, ptr %23) #13
  call void @llvm.lifetime.end.p0(i64 2, ptr %22) #13
  call void @llvm.lifetime.end.p0(i64 8, ptr %21) #13
  call void @llvm.lifetime.end.p0(i64 8, ptr %20) #13
  %152 = load i32, ptr %10, align 4
  ret i32 %152
}