; Function Attrs: null_pointer_is_valid sspstrong uwtable
define hidden i32 @dissect_ndr_counted_byte_array_cb(ptr noundef %0, i32 noundef %1, ptr noundef %2, ptr noundef %3, ptr noundef %4, ptr noundef %5, i32 noundef %6, ptr noundef %7, ptr noundef %8) local_unnamed_addr #0 {
  %10 = alloca ptr, align 8
  %11 = alloca i16, align 2
  %12 = alloca i16, align 2
  call void @llvm.lifetime.start.p0(i64 8, ptr nonnull %10) #9
  call void @llvm.lifetime.start.p0(i64 2, ptr nonnull %11) #9
  call void @llvm.lifetime.start.p0(i64 2, ptr nonnull %12) #9
  %13 = getelementptr inbounds nuw i8, ptr %4, i64 64
  %14 = load ptr, ptr %13, align 8
  %15 = getelementptr inbounds nuw i8, ptr %14, i64 96
  %16 = load i32, ptr %15, align 8
  %17 = and i32 %16, 1
  %.not = icmp eq i32 %17, 0
  %18 = getelementptr inbounds nuw i8, ptr %4, i64 25
  %19 = load i8, ptr %18, align 1, !range !6, !noundef !7
  %20 = trunc nuw i8 %19 to i1
  br i1 %.not, label %23, label %21

21:                                               ; preds = %9
  %22 = and i32 %1, 7
  %.not45 = icmp eq i32 %22, 0
  %or.cond = or i1 %.not45, %20
  br i1 %or.cond, label %27, label %.thread

23:                                               ; preds = %9
  %24 = and i32 %1, 3
  %.not44 = icmp eq i32 %24, 0
  %or.cond48 = or i1 %.not44, %20
  br i1 %or.cond48, label %27, label %.thread

.thread:                                          ; preds = %23, %21
  %.sink53 = phi i32 [ -8, %21 ], [ -4, %23 ]
  %.sink52 = phi i32 [ 8, %21 ], [ 4, %23 ]
  %25 = and i32 %1, %.sink53
  %26 = add i32 %25, %.sink52
  br label %29

27:                                               ; preds = %23, %21
  %28 = trunc nuw i8 %19 to i1
  br i1 %28, label %50, label %29

29:                                               ; preds = %.thread, %27
  %.04351 = phi i32 [ %26, %.thread ], [ %1, %27 ]
  %30 = load i32, ptr @ett_nt_counted_byte_array, align 4
  %31 = tail call ptr @proto_registrar_get_name(i32 noundef %6)
  %32 = call ptr @proto_tree_add_subtree(ptr noundef %3, ptr noundef %0, i32 noundef %.04351, i32 noundef 0, i32 noundef %30, ptr noundef nonnull %10, ptr noundef %31)
  %33 = load i32, ptr @hf_nt_cs_len, align 4
  %34 = call i32 @dissect_ndr_uint16(ptr noundef %0, i32 noundef %.04351, ptr noundef %2, ptr noundef %32, ptr noundef %4, ptr noundef %5, i32 noundef %33, ptr noundef nonnull %11)
  %35 = load i32, ptr @hf_nt_cs_size, align 4
  %36 = call i32 @dissect_ndr_uint16(ptr noundef %0, i32 noundef %34, ptr noundef %2, ptr noundef %32, ptr noundef %4, ptr noundef %5, i32 noundef %35, ptr noundef nonnull %12)
  %37 = call i32 @dissect_ndr_pointer_cb(ptr noundef %0, i32 noundef %36, ptr noundef %2, ptr noundef %32, ptr noundef %4, ptr noundef %5, ptr noundef nonnull @dissect_ndr_char_cvstring, i32 noundef 2, ptr noundef nonnull @.str.6, i32 noundef %6, ptr noundef %7, ptr noundef %8)
  %38 = load ptr, ptr %13, align 8
  %39 = getelementptr inbounds nuw i8, ptr %38, i64 96
  %40 = load i32, ptr %39, align 8
  %41 = and i32 %40, 1
  %.not46 = icmp eq i32 %41, 0
  br i1 %.not46, label %50, label %42

42:                                               ; preds = %29
  %43 = getelementptr inbounds nuw i8, ptr %4, i64 25
  %44 = load i8, ptr %43, align 1, !range !6, !noundef !7
  %45 = trunc nuw i8 %44 to i1
  %46 = and i32 %37, 7
  %.not47 = icmp eq i32 %46, 0
  %or.cond49 = select i1 %45, i1 true, i1 %.not47
  br i1 %or.cond49, label %50, label %47

47:                                               ; preds = %42
  %48 = and i32 %37, -8
  %49 = add i32 %48, 8
  br label %50

50:                                               ; preds = %29, %42, %47, %27
  %.0 = phi i32 [ %1, %27 ], [ %37, %42 ], [ %49, %47 ], [ %37, %29 ]
  call void @llvm.lifetime.end.p0(i64 2, ptr nonnull %12) #9
  call void @llvm.lifetime.end.p0(i64 2, ptr nonnull %11) #9
  call void @llvm.lifetime.end.p0(i64 8, ptr nonnull %10) #9
  ret i32 %.0
}